target datalayout = "e-m:e-p270:32:32-p271:32:32-p272:64:64-i64:64-i128:128-f80:128-n8:16:32:64-S128"
target triple = "x86_64-pc-linux-gnu"

%struct.SDL_Surface = type { i32, i32, i32, i32, i32, ptr, i32, ptr, i32, i32, ptr, i32, ptr, i32, ptr, i32, %struct.SDL_Rect, %struct.SDL_BlitMap }
%struct.SDL_Rect = type { i32, i32, i32, i32 }
%struct.SDL_BlitMap = type { i32, ptr, ptr, %struct.SDL_BlitInfo, i32, i32 }
%struct.SDL_BlitInfo = type { ptr, ptr, i32, i32, i32, i32, ptr, ptr, i32, i32, i32, i32, ptr, ptr, ptr, ptr, ptr, ptr, i32, i32, i8, i8, i8, i8 }

@.str = private unnamed_addr constant [26 x i8] c"Parameter '%s' is invalid\00", align 1
@.str.1 = private unnamed_addr constant [6 x i8] c"width\00", align 1
@.str.2 = private unnamed_addr constant [7 x i8] c"height\00", align 1
@.str.3 = private unnamed_addr constant [7 x i8] c"format\00", align 1

; Function Attrs: nounwind uwtable
define hidden ptr @SDL_CreateSurface_REAL(i32 noundef %0, i32 noundef %1, i32 noundef %2) #0 {
  %4 = alloca ptr, align 8
  %5 = alloca i32, align 4
  %6 = alloca i32, align 4
  %7 = alloca i32, align 4
  %8 = alloca i64, align 8
  %9 = alloca i64, align 8
  %10 = alloca ptr, align 8
  %11 = alloca i32, align 4
  store i32 %0, ptr %5, align 4
  store i32 %1, ptr %6, align 4
  store i32 %2, ptr %7, align 4
  call void @llvm.lifetime.start.p0(i64 8, ptr %8) #8
  call void @llvm.lifetime.start.p0(i64 8, ptr %9) #8
  call void @llvm.lifetime.start.p0(i64 8, ptr %10) #8
  %12 = load i32, ptr %5, align 4
  %13 = icmp slt i32 %12, 0
  br i1 %13, label %14, label %16

14:                                               ; preds = %3
  %15 = call zeroext i1 (ptr, ...) @SDL_SetError_REAL(ptr noundef @.str, ptr noundef @.str.1)
  store ptr null, ptr %4, align 8
  store i32 1, ptr %11, align 4
  br label %86

16:                                               ; preds = %3
  %17 = load i32, ptr %6, align 4
  %18 = icmp slt i32 %17, 0
  br i1 %18, label %19, label %21

19:                                               ; preds = %16
  %20 = call zeroext i1 (ptr, ...) @SDL_SetError_REAL(ptr noundef @.str, ptr noundef @.str.2)
  store ptr null, ptr %4, align 8
  store i32 1, ptr %11, align 4
  br label %86

21:                                               ; preds = %16
  %22 = load i32, ptr %7, align 4
  %23 = icmp eq i32 %22, 0
  br i1 %23, label %24, label %26

24:                                               ; preds = %21
  %25 = call zeroext i1 (ptr, ...) @SDL_SetError_REAL(ptr noundef @.str, ptr noundef @.str.3)
  store ptr null, ptr %4, align 8
  store i32 1, ptr %11, align 4
  br label %86

26:                                               ; preds = %21
  %27 = load i32, ptr %7, align 4
  %28 = load i32, ptr %5, align 4
  %29 = load i32, ptr %6, align 4
  %30 = call zeroext i1 @SDL_CalculateSurfaceSize(i32 noundef %27, i32 noundef %28, i32 noundef %29, ptr noundef %9, ptr noundef %8, i1 noundef zeroext false)
  br i1 %30, label %32, label %31

31:                                               ; preds = %26
  store ptr null, ptr %4, align 8
  store i32 1, ptr %11, align 4
  br label %86

32:                                               ; preds = %26
  %33 = call noalias ptr @SDL_malloc_REAL(i64 noundef 280)
  store ptr %33, ptr %10, align 8
  %34 = load ptr, ptr %10, align 8
  %35 = icmp ne ptr %34, null
  br i1 %35, label %37, label %36

36:                                               ; preds = %32
  store ptr null, ptr %4, align 8
  store i32 1, ptr %11, align 4
  br label %86

37:                                               ; preds = %32
  %38 = load ptr, ptr %10, align 8
  %39 = load i32, ptr %5, align 4
  %40 = load i32, ptr %6, align 4
  %41 = load i32, ptr %7, align 4
  %42 = load i64, ptr %8, align 8
  %43 = trunc i64 %42 to i32
  %44 = call zeroext i1 @SDL_InitializeSurface(ptr noundef %38, i32 noundef %39, i32 noundef %40, i32 noundef %41, i32 noundef 0, i32 noundef 0, ptr noundef null, i32 noundef %43, i1 noundef zeroext false)
  br i1 %44, label %46, label %45

45:                                               ; preds = %37
  store ptr null, ptr %4, align 8
  store i32 1, ptr %11, align 4
  br label %86

46:                                               ; preds = %37
  %47 = load ptr, ptr %10, align 8
  %48 = getelementptr inbounds nuw %struct.SDL_Surface, ptr %47, i32 0, i32 2
  %49 = load i32, ptr %48, align 8
  %50 = icmp ne i32 %49, 0
  br i1 %50, label %51, label %84

51:                                               ; preds = %46
  %52 = load ptr, ptr %10, align 8
  %53 = getelementptr inbounds nuw %struct.SDL_Surface, ptr %52, i32 0, i32 3
  %54 = load i32, ptr %53, align 4
  %55 = icmp ne i32 %54, 0
  br i1 %55, label %56, label %84

56:                                               ; preds = %51
  %57 = load i32, ptr %7, align 4
  %58 = icmp ne i32 %57, 1196444237
  br i1 %58, label %59, label %84

59:                                               ; preds = %56
  %60 = load ptr, ptr %10, align 8
  %61 = getelementptr inbounds nuw %struct.SDL_Surface, ptr %60, i32 0, i32 0
  %62 = load i32, ptr %61, align 8
  %63 = and i32 %62, -2
  store i32 %63, ptr %61, align 8
  %64 = call i64 @SDL_GetSIMDAlignment_REAL()
  %65 = load i64, ptr %9, align 8
  %66 = call noalias ptr @SDL_aligned_alloc_REAL(i64 noundef %64, i64 noundef %65)
  %67 = load ptr, ptr %10, align 8
  %68 = getelementptr inbounds nuw %struct.SDL_Surface, ptr %67, i32 0, i32 5
  store ptr %66, ptr %68, align 8
  %69 = load ptr, ptr %10, align 8
  %70 = getelementptr inbounds nuw %struct.SDL_Surface, ptr %69, i32 0, i32 5
  %71 = load ptr, ptr %70, align 8
  %72 = icmp ne ptr %71, null
  br i1 %72, label %75, label %73

73:                                               ; preds = %59
  %74 = load ptr, ptr %10, align 8
  call void @SDL_DestroySurface_REAL(ptr noundef %74)
  store ptr null, ptr %4, align 8
  store i32 1, ptr %11, align 4
  br label %86

75:                                               ; preds = %59
  %76 = load ptr, ptr %10, align 8
  %77 = getelementptr inbounds nuw %struct.SDL_Surface, ptr %76, i32 0, i32 0
  %78 = load i32, ptr %77, align 8
  %79 = or i32 %78, 8
  store i32 %79, ptr %77, align 8
  %80 = load ptr, ptr %10, align 8
  %81 = getelementptr inbounds nuw %struct.SDL_Surface, ptr %80, i32 0, i32 5
  %82 = load ptr, ptr %81, align 8
  %83 = load i64, ptr %9, align 8
  call void @llvm.memset.p0.i64(ptr align 1 %82, i8 0, i64 %83, i1 false)
  br label %84

84:                                               ; preds = %75, %56, %51, %46
  %85 = load ptr, ptr %10, align 8
  store ptr %85, ptr %4, align 8
  store i32 1, ptr %11, align 4
  br label %86

86:                                               ; preds = %84, %73, %45, %36, %31, %24, %19, %14
  call void @llvm.lifetime.end.p0(i64 8, ptr %10) #8
  call void @llvm.lifetime.end.p0(i64 8, ptr %9) #8
  call void @llvm.lifetime.end.p0(i64 8, ptr %8) #8
  %87 = load ptr, ptr %4, align 8
  ret ptr %87
}