; Function Attrs: nounwind uwtable
define hidden ptr @SDL_CreateSurface_REAL(i32 noundef %0, i32 noundef %1, i32 noundef %2) local_unnamed_addr #2 {
  %4 = alloca i64, align 8
  %5 = alloca i64, align 8
  call void @llvm.lifetime.start.p0(i64 8, ptr nonnull %4) #10
  call void @llvm.lifetime.start.p0(i64 8, ptr nonnull %5) #10
  %6 = icmp slt i32 %0, 0
  br i1 %6, label %7, label %9

7:                                                ; preds = %3
  %8 = tail call zeroext i1 (ptr, ...) @SDL_SetError_REAL(ptr noundef nonnull @.str, ptr noundef nonnull @.str.1) #10
  br label %44

9:                                                ; preds = %3
  %10 = icmp slt i32 %1, 0
  br i1 %10, label %11, label %13

11:                                               ; preds = %9
  %12 = tail call zeroext i1 (ptr, ...) @SDL_SetError_REAL(ptr noundef nonnull @.str, ptr noundef nonnull @.str.2) #10
  br label %44

13:                                               ; preds = %9
  %14 = icmp eq i32 %2, 0
  br i1 %14, label %15, label %17

15:                                               ; preds = %13
  %16 = tail call zeroext i1 (ptr, ...) @SDL_SetError_REAL(ptr noundef nonnull @.str, ptr noundef nonnull @.str.3) #10
  br label %44

17:                                               ; preds = %13
  %18 = call zeroext i1 @SDL_CalculateSurfaceSize(i32 noundef %2, i32 noundef %0, i32 noundef %1, ptr noundef nonnull %5, ptr noundef nonnull %4, i1 noundef zeroext false)
  br i1 %18, label %19, label %44

19:                                               ; preds = %17
  %20 = call noalias ptr @SDL_malloc_REAL(i64 noundef 280) #10
  %.not = icmp eq ptr %20, null
  br i1 %.not, label %44, label %21

21:                                               ; preds = %19
  %22 = load i64, ptr %4, align 8
  %23 = trunc i64 %22 to i32
  %24 = call fastcc zeroext i1 @SDL_InitializeSurface(ptr noundef %20, i32 noundef %0, i32 noundef %1, i32 noundef %2, i32 noundef 0, i32 noundef 0, ptr noundef null, i32 noundef %23, i1 noundef zeroext false)
  br i1 %24, label %25, label %44

25:                                               ; preds = %21
  %26 = getelementptr inbounds nuw i8, ptr %20, i64 8
  %27 = load i32, ptr %26, align 8
  %.not26 = icmp eq i32 %27, 0
  br i1 %.not26, label %44, label %28

28:                                               ; preds = %25
  %29 = getelementptr inbounds nuw i8, ptr %20, i64 12
  %30 = load i32, ptr %29, align 4
  %31 = icmp ne i32 %30, 0
  %32 = icmp ne i32 %2, 1196444237
  %or.cond = and i1 %32, %31
  br i1 %or.cond, label %33, label %44

33:                                               ; preds = %28
  %34 = load i32, ptr %20, align 8
  %35 = and i32 %34, -2
  store i32 %35, ptr %20, align 8
  %36 = call i64 @SDL_GetSIMDAlignment_REAL() #10
  %37 = load i64, ptr %5, align 8
  %38 = call noalias ptr @SDL_aligned_alloc_REAL(i64 noundef %36, i64 noundef %37) #10
  %39 = getelementptr inbounds nuw i8, ptr %20, i64 24
  store ptr %38, ptr %39, align 8
  %.not27 = icmp eq ptr %38, null
  br i1 %.not27, label %40, label %41

40:                                               ; preds = %33
  call void @SDL_DestroySurface_REAL(ptr noundef nonnull %20)
  br label %44

41:                                               ; preds = %33
  %42 = load i32, ptr %20, align 8
  %43 = or i32 %42, 8
  store i32 %43, ptr %20, align 8
  call void @llvm.memset.p0.i64(ptr nonnull align 1 %38, i8 0, i64 %37, i1 false)
  br label %44

44:                                               ; preds = %25, %28, %41, %21, %19, %17, %40, %15, %11, %7
  %.0 = phi ptr [ null, %7 ], [ null, %11 ], [ null, %15 ], [ null, %40 ], [ null, %17 ], [ null, %19 ], [ null, %21 ], [ %20, %41 ], [ %20, %28 ], [ %20, %25 ]
  call void @llvm.lifetime.end.p0(i64 8, ptr nonnull %5) #10
  call void @llvm.lifetime.end.p0(i64 8, ptr nonnull %4) #10
  ret ptr %.0
}